target datalayout = "e-m:e-p270:32:32-p271:32:32-p272:64:64-i64:64-i128:128-f80:128-n8:16:32:64-S128"
target triple = "x86_64-pc-linux-gnu"

%struct.cl_engine = type { i32, i32, i32, [2 x i32], i32, i32, i32, ptr, i32, i64, i32, i32, i64, i64, i32, i32, i32, i32, ptr, ptr, ptr, ptr, ptr, ptr, ptr, ptr, ptr, ptr, ptr, ptr, ptr, ptr, ptr, ptr, ptr, ptr, ptr, i64, ptr, %struct.crtmgr, ptr, ptr, ptr, ptr, ptr, ptr, ptr, ptr, ptr, ptr, ptr, ptr, ptr, ptr, ptr, ptr, ptr, %struct.cli_all_bc, [7 x ptr], [7 x i32], i32, i32, i32, i32, i64, i64, i64, i64, i64, ptr, ptr, ptr, ptr, ptr, ptr, ptr, ptr, ptr, i32, i32, i32, i64, i64, i64, ptr }
%struct.crtmgr = type { ptr, i32 }
%struct.cli_all_bc = type { ptr, i32, ptr, %struct.cli_environment, i32 }
%struct.cli_environment = type { i32, i32, i32, i32, i32, i32, i32, [65 x i8], [65 x i8], [65 x i8], [65 x i8], [65 x i8], [65 x i8], [65 x i8], i8, i8, i8, i8, i8, i8, i8, i8, i8 }
%struct.regex_matcher = type { %struct.cli_hashtable, i64, ptr, i64, i64, ptr, %struct.cli_matcher, %struct.cli_matcher, %struct.cli_hashset, %struct.cli_matcher, %struct.filter, ptr, i8 }
%struct.cli_hashtable = type { ptr, i64, i64, i64 }
%struct.cli_hashset = type { ptr, ptr, ptr, i32, i32, i32, i32 }
%struct.cli_matcher = type { i32, ptr, ptr, ptr, ptr, i32, i32, i32, i32, i32, %struct.cli_hash_patt, %struct.cli_hash_wild, i32, i32, i32, i32, i32, ptr, ptr, ptr, ptr, ptr, ptr, i32, i32, i8, i8, ptr, i16, i8, i32, ptr, i32, i32, i32, ptr, ptr, i32, ptr, i64, i64, ptr }
%struct.cli_hash_patt = type { [3 x %struct.cli_htu32] }
%struct.cli_htu32 = type { ptr, i64, i64, i64 }
%struct.cli_hash_wild = type { [3 x %struct.cli_sz_hash] }
%struct.cli_sz_hash = type { ptr, ptr, i32 }
%struct.filter = type { [65536 x i8], [65536 x i8], i64 }
%struct.cli_dconf = type { i32, i32, i32, i32, i32, i32, i32, i32, i32, i32, i32 }

@.str = private unnamed_addr constant [60 x i8] c"Phishcheck: Unable to allocate memory for init_domain_list\0A\00", align 1

; Function Attrs: nounwind uwtable
define i32 @domain_list_match(ptr noundef %0, ptr noundef %1, ptr noundef %2, ptr noundef %3, i32 noundef %4) #0 {
  %6 = alloca ptr, align 8
  %7 = alloca ptr, align 8
  %8 = alloca ptr, align 8
  %9 = alloca ptr, align 8
  %10 = alloca i32, align 4
  %11 = alloca ptr, align 8
  %12 = alloca i32, align 4
  store ptr %0, ptr %6, align 8
  store ptr %1, ptr %7, align 8
  store ptr %2, ptr %8, align 8
  store ptr %3, ptr %9, align 8
  store i32 %4, ptr %10, align 4
  %13 = load ptr, ptr %6, align 8
  %14 = getelementptr inbounds %struct.cl_engine, ptr %13, i32 0, i32 25
  %15 = load ptr, ptr %14, align 8
  %16 = icmp ne ptr %15, null
  br i1 %16, label %17, label %32

17:                                               ; preds = %5
  %18 = load ptr, ptr %6, align 8
  %19 = getelementptr inbounds %struct.cl_engine, ptr %18, i32 0, i32 25
  %20 = load ptr, ptr %19, align 8
  %21 = load ptr, ptr %7, align 8
  %22 = load ptr, ptr %8, align 8
  %23 = load i32, ptr %10, align 4
  %24 = icmp ne i32 %23, 0
  br i1 %24, label %25, label %27

25:                                               ; preds = %17
  %26 = load ptr, ptr %9, align 8
  br label %28

27:                                               ; preds = %17
  br label %28

28:                                               ; preds = %27, %25
  %29 = phi ptr [ %26, %25 ], [ null, %27 ]
  %30 = load i32, ptr %10, align 4
  %31 = call i32 @regex_list_match(ptr noundef %20, ptr noundef %21, ptr noundef %22, ptr noundef %29, i32 noundef %30, ptr noundef %11, i32 noundef 0)
  br label %33

32:                                               ; preds = %5
  br label %33

33:                                               ; preds = %32, %28
  %34 = phi i32 [ %31, %28 ], [ 0, %32 ]
  store i32 %34, ptr %12, align 4
  %35 = load i32, ptr %12, align 4
  ret i32 %35
}

declare i32 @regex_list_match(ptr noundef, ptr noundef, ptr noundef, ptr noundef, i32 noundef, ptr noundef, i32 noundef) #1

; Function Attrs: nounwind uwtable
define i32 @init_domain_list(ptr noundef %0) #0 {
  %2 = alloca i32, align 4
  %3 = alloca ptr, align 8
  store ptr %0, ptr %3, align 8
  %4 = load ptr, ptr %3, align 8
  %5 = icmp ne ptr %4, null
  br i1 %5, label %6, label %34

6:                                                ; preds = %1
  %7 = call noalias ptr @malloc(i64 noundef 132456) #4
  %8 = load ptr, ptr %3, align 8
  %9 = getelementptr inbounds %struct.cl_engine, ptr %8, i32 0, i32 25
  store ptr %7, ptr %9, align 8
  %10 = load ptr, ptr %3, align 8
  %11 = getelementptr inbounds %struct.cl_engine, ptr %10, i32 0, i32 25
  %12 = load ptr, ptr %11, align 8
  %13 = icmp ne ptr %12, null
  br i1 %13, label %15, label %14

14:                                               ; preds = %6
  call void (ptr, ...) @cli_errmsg(ptr noundef @.str)
  store i32 20, ptr %2, align 4
  br label %35

15:                                               ; preds = %6
  %16 = load ptr, ptr %3, align 8
  %17 = getelementptr inbounds %struct.cl_engine, ptr %16, i32 0, i32 38
  %18 = load ptr, ptr %17, align 8
  %19 = load ptr, ptr %3, align 8
  %20 = getelementptr inbounds %struct.cl_engine, ptr %19, i32 0, i32 25
  %21 = load ptr, ptr %20, align 8
  %22 = getelementptr inbounds %struct.regex_matcher, ptr %21, i32 0, i32 11
  store ptr %18, ptr %22, align 8
  %23 = load ptr, ptr %3, align 8
  %24 = getelementptr inbounds %struct.cl_engine, ptr %23, i32 0, i32 25
  %25 = load ptr, ptr %24, align 8
  %26 = load ptr, ptr %3, align 8
  %27 = getelementptr inbounds %struct.cl_engine, ptr %26, i32 0, i32 27
  %28 = load ptr, ptr %27, align 8
  %29 = getelementptr inbounds %struct.cli_dconf, ptr %28, i32 0, i32 6
  %30 = load i32, ptr %29, align 4
  %31 = and i32 %30, 128
  %32 = trunc i32 %31 to i8
  %33 = call i32 @init_regex_list(ptr noundef %25, i8 noundef zeroext %32)
  store i32 %33, ptr %2, align 4
  br label %35

34:                                               ; preds = %1
  store i32 2, ptr %2, align 4
  br label %35

35:                                               ; preds = %34, %15, %14
  %36 = load i32, ptr %2, align 4
  ret i32 %36
}

; Function Attrs: nounwind allocsize(0)
declare noalias ptr @malloc(i64 noundef) #2

declare void @cli_errmsg(ptr noundef, ...) #1

declare i32 @init_regex_list(ptr noundef, i8 noundef zeroext) #1

; Function Attrs: nounwind uwtable
define i32 @is_domain_list_ok(ptr noundef %0) #0 {
  %2 = alloca ptr, align 8
  store ptr %0, ptr %2, align 8
  %3 = load ptr, ptr %2, align 8
  %4 = icmp ne ptr %3, null
  br i1 %4, label %5, label %15

5:                                                ; preds = %1
  %6 = load ptr, ptr %2, align 8
  %7 = getelementptr inbounds %struct.cl_engine, ptr %6, i32 0, i32 25
  %8 = load ptr, ptr %7, align 8
  %9 = icmp ne ptr %8, null
  br i1 %9, label %10, label %15

10:                                               ; preds = %5
  %11 = load ptr, ptr %2, align 8
  %12 = getelementptr inbounds %struct.cl_engine, ptr %11, i32 0, i32 25
  %13 = load ptr, ptr %12, align 8
  %14 = call i32 @is_regex_ok(ptr noundef %13)
  br label %16

15:                                               ; preds = %5, %1
  br label %16

16:                                               ; preds = %15, %10
  %17 = phi i32 [ %14, %10 ], [ 1, %15 ]
  ret i32 %17
}

declare i32 @is_regex_ok(ptr noundef) #1

; Function Attrs: nounwind uwtable
define void @domain_list_done(ptr noundef %0) #0 {
  %2 = alloca ptr, align 8
  store ptr %0, ptr %2, align 8
  %3 = load ptr, ptr %2, align 8
  %4 = icmp ne ptr %3, null
  br i1 %4, label %5, label %17

5:                                                ; preds = %1
  %6 = load ptr, ptr %2, align 8
  %7 = getelementptr inbounds %struct.cl_engine, ptr %6, i32 0, i32 25
  %8 = load ptr, ptr %7, align 8
  %9 = icmp ne ptr %8, null
  br i1 %9, label %10, label %17

10:                                               ; preds = %5
  %11 = load ptr, ptr %2, align 8
  %12 = getelementptr inbounds %struct.cl_engine, ptr %11, i32 0, i32 25
  %13 = load ptr, ptr %12, align 8
  call void @regex_list_done(ptr noundef %13)
  %14 = load ptr, ptr %2, align 8
  %15 = getelementptr inbounds %struct.cl_engine, ptr %14, i32 0, i32 25
  %16 = load ptr, ptr %15, align 8
  call void @free(ptr noundef %16) #5
  br label %17

17:                                               ; preds = %10, %5, %1
  ret void
}

declare void @regex_list_done(ptr noundef) #1

; Function Attrs: nounwind
declare void @free(ptr noundef) #3


!llvm.module.flags = !{!0, !1, !2, !3}

!0 = !{i32 1, !"wchar_size", i32 4}
!1 = !{i32 8, !"PIC Level", i32 2}
!2 = !{i32 7, !"uwtable", i32 2}
!3 = !{i32 7, !"frame-pointer", i32 2}
