; ModuleID = 'bench/clamav/original/phish_domaincheck_db.c.ll'
source_filename = "bench/clamav/original/phish_domaincheck_db.c.ll"
target datalayout = "e-m:e-p270:32:32-p271:32:32-p272:64:64-i64:64-i128:128-f80:128-n8:16:32:64-S128"
target triple = "x86_64-pc-linux-gnu"

@.str = private unnamed_addr constant [60 x i8] c"Phishcheck: Unable to allocate memory for init_domain_list\0A\00", align 1

; Function Attrs: nounwind uwtable
define i32 @domain_list_match(ptr nocapture noundef readonly %0, ptr noundef %1, ptr noundef %2, ptr noundef %3, i32 noundef %4) local_unnamed_addr #0 {
  %6 = alloca ptr, align 8
  %7 = getelementptr inbounds i8, ptr %0, i64 152
  %8 = load ptr, ptr %7, align 8
  %.not = icmp eq ptr %8, null
  br i1 %.not, label %12, label %9

9:                                                ; preds = %5
  %.not7 = icmp eq i32 %4, 0
  %10 = select i1 %.not7, ptr null, ptr %3
  %11 = call i32 @regex_list_match(ptr noundef nonnull %8, ptr noundef %1, ptr noundef %2, ptr noundef %10, i32 noundef %4, ptr noundef nonnull %6, i32 noundef 0) #4
  br label %12

12:                                               ; preds = %5, %9
  %13 = phi i32 [ %11, %9 ], [ 0, %5 ]
  ret i32 %13
}

declare i32 @regex_list_match(ptr noundef, ptr noundef, ptr noundef, ptr noundef, i32 noundef, ptr noundef, i32 noundef) local_unnamed_addr #1

; Function Attrs: nounwind uwtable
define i32 @init_domain_list(ptr noundef %0) local_unnamed_addr #0 {
  %.not = icmp eq ptr %0, null
  br i1 %.not, label %17, label %2

2:                                                ; preds = %1
  %3 = tail call noalias dereferenceable_or_null(132456) ptr @malloc(i64 noundef 132456) #5
  %4 = getelementptr inbounds i8, ptr %0, i64 152
  store ptr %3, ptr %4, align 8
  %.not9 = icmp eq ptr %3, null
  br i1 %.not9, label %5, label %6

5:                                                ; preds = %2
  tail call void (ptr, ...) @cli_errmsg(ptr noundef nonnull @.str) #4
  br label %17

6:                                                ; preds = %2
  %7 = getelementptr inbounds i8, ptr %0, i64 256
  %8 = load ptr, ptr %7, align 8
  %9 = getelementptr inbounds i8, ptr %3, i64 132440
  store ptr %8, ptr %9, align 8
  %10 = getelementptr inbounds i8, ptr %0, i64 168
  %11 = load ptr, ptr %10, align 8
  %12 = getelementptr inbounds i8, ptr %11, i64 24
  %13 = load i32, ptr %12, align 4
  %14 = trunc i32 %13 to i8
  %15 = and i8 %14, -128
  %16 = tail call i32 @init_regex_list(ptr noundef nonnull %3, i8 noundef zeroext %15) #4
  br label %17

17:                                               ; preds = %1, %6, %5
  %.0 = phi i32 [ %16, %6 ], [ 20, %5 ], [ 2, %1 ]
  ret i32 %.0
}

; Function Attrs: mustprogress nofree nounwind willreturn allockind("alloc,uninitialized") allocsize(0) memory(inaccessiblemem: readwrite)
declare noalias noundef ptr @malloc(i64 noundef) local_unnamed_addr #2

declare void @cli_errmsg(ptr noundef, ...) local_unnamed_addr #1

declare i32 @init_regex_list(ptr noundef, i8 noundef zeroext) local_unnamed_addr #1

; Function Attrs: nounwind uwtable
define i32 @is_domain_list_ok(ptr noundef readonly %0) local_unnamed_addr #0 {
  %.not = icmp eq ptr %0, null
  br i1 %.not, label %7, label %2

2:                                                ; preds = %1
  %3 = getelementptr inbounds i8, ptr %0, i64 152
  %4 = load ptr, ptr %3, align 8
  %.not4 = icmp eq ptr %4, null
  br i1 %.not4, label %7, label %5

5:                                                ; preds = %2
  %6 = tail call i32 @is_regex_ok(ptr noundef nonnull %4) #4
  br label %7

7:                                                ; preds = %1, %2, %5
  %8 = phi i32 [ %6, %5 ], [ 1, %2 ], [ 1, %1 ]
  ret i32 %8
}

declare i32 @is_regex_ok(ptr noundef) local_unnamed_addr #1

; Function Attrs: nounwind uwtable
define void @domain_list_done(ptr noundef readonly %0) local_unnamed_addr #0 {
  %.not = icmp eq ptr %0, null
  br i1 %.not, label %7, label %2

2:                                                ; preds = %1
  %3 = getelementptr inbounds i8, ptr %0, i64 152
  %4 = load ptr, ptr %3, align 8
  %.not5 = icmp eq ptr %4, null
  br i1 %.not5, label %7, label %5

5:                                                ; preds = %2
  tail call void @regex_list_done(ptr noundef nonnull %4) #4
  %6 = load ptr, ptr %3, align 8
  tail call void @free(ptr noundef %6) #4
  br label %7

7:                                                ; preds = %5, %2, %1
  ret void
}

declare void @regex_list_done(ptr noundef) local_unnamed_addr #1

; Function Attrs: mustprogress nounwind willreturn allockind("free") memory(argmem: readwrite, inaccessiblemem: readwrite)
declare void @free(ptr allocptr nocapture noundef) local_unnamed_addr #3


!llvm.module.flags = !{!0, !1, !2, !3}

!0 = !{i32 1, !"wchar_size", i32 4}
!1 = !{i32 8, !"PIC Level", i32 2}
!2 = !{i32 7, !"uwtable", i32 2}
!3 = !{i32 7, !"frame-pointer", i32 2}
